target datalayout = "e-m:e-p270:32:32-p271:32:32-p272:64:64-i64:64-i128:128-f80:128-n8:16:32:64-S128"
target triple = "x86_64-pc-linux-gnu"

@hf_msg_id_timestamp = internal global i32 0, align 4
@hf_msg_id_ismg_code = internal global i32 0, align 4
@hf_msg_id_sequence_id = internal global i32 0, align 4
@ett_msg_id = internal global i32 0, align 4
@.str.204 = private unnamed_addr constant [25 x i8] c"%02u/%02u %02u:%02u:%02u\00", align 1

; Function Attrs: null_pointer_is_valid sspstrong uwtable
define internal zeroext i16 @cmpp_uint2(ptr noundef %0, ptr noundef %1, i32 noundef %2, i32 noundef %3) #0 {
  %5 = alloca ptr, align 8
  %6 = alloca ptr, align 8
  %7 = alloca i32, align 4
  %8 = alloca i32, align 4
  %9 = alloca i16, align 2
  store ptr %0, ptr %5, align 8
  store ptr %1, ptr %6, align 8
  store i32 %2, ptr %7, align 4
  store i32 %3, ptr %8, align 4
  call void @llvm.lifetime.start.p0(i64 2, ptr %9) #3
  %10 = load ptr, ptr %6, align 8
  %11 = load i32, ptr %8, align 4
  %12 = call zeroext i16 @tvb_get_ntohs(ptr noundef %10, i32 noundef %11)
  store i16 %12, ptr %9, align 2
  %13 = load ptr, ptr %5, align 8
  %14 = load i32, ptr %7, align 4
  %15 = load ptr, ptr %6, align 8
  %16 = load i32, ptr %8, align 4
  %17 = load i16, ptr %9, align 2
  %18 = zext i16 %17 to i32
  %19 = call ptr @proto_tree_add_uint(ptr noundef %13, i32 noundef %14, ptr noundef %15, i32 noundef %16, i32 noundef 2, i32 noundef %18)
  %20 = load i16, ptr %9, align 2
  call void @llvm.lifetime.end.p0(i64 2, ptr %9) #3
  ret i16 %20
}

; Function Attrs: null_pointer_is_valid sspstrong uwtable
define internal void @cmpp_msg_id(ptr noundef %0, ptr noundef %1, i32 noundef %2, i32 noundef %3) #0 {
  %5 = alloca ptr, align 8
  %6 = alloca ptr, align 8
  %7 = alloca i32, align 4
  %8 = alloca i32, align 4
  %9 = alloca i8, align 1
  %10 = alloca i8, align 1
  %11 = alloca i8, align 1
  %12 = alloca i8, align 1
  %13 = alloca i8, align 1
  %14 = alloca i32, align 4
  %15 = alloca ptr, align 8
  %16 = alloca ptr, align 8
  %17 = alloca ptr, align 8
  store ptr %0, ptr %5, align 8
  store ptr %1, ptr %6, align 8
  store i32 %2, ptr %7, align 4
  store i32 %3, ptr %8, align 4
  call void @llvm.lifetime.start.p0(i64 1, ptr %9) #3
  call void @llvm.lifetime.start.p0(i64 1, ptr %10) #3
  call void @llvm.lifetime.start.p0(i64 1, ptr %11) #3
  call void @llvm.lifetime.start.p0(i64 1, ptr %12) #3
  call void @llvm.lifetime.start.p0(i64 1, ptr %13) #3
  call void @llvm.lifetime.start.p0(i64 4, ptr %14) #3
  call void @llvm.lifetime.start.p0(i64 8, ptr %15) #3
  call void @llvm.lifetime.start.p0(i64 8, ptr %16) #3
  call void @llvm.lifetime.start.p0(i64 8, ptr %17) #3
  %18 = load ptr, ptr %5, align 8
  %19 = load i32, ptr %7, align 4
  %20 = load ptr, ptr %6, align 8
  %21 = load i32, ptr %8, align 4
  %22 = call ptr @proto_tree_add_item(ptr noundef %18, i32 noundef %19, ptr noundef %20, i32 noundef %21, i32 noundef 8, i32 noundef 0)
  store ptr %22, ptr %15, align 8
  %23 = load ptr, ptr %15, align 8
  %24 = load i32, ptr @ett_msg_id, align 4
  %25 = call ptr @proto_item_add_subtree(ptr noundef %23, i32 noundef %24)
  store ptr %25, ptr %16, align 8
  %26 = load ptr, ptr %6, align 8
  %27 = load i32, ptr %8, align 4
  %28 = call zeroext i8 @tvb_get_uint8(ptr noundef %26, i32 noundef %27)
  %29 = zext i8 %28 to i32
  %30 = and i32 %29, 240
  %31 = ashr i32 %30, 4
  %32 = trunc i32 %31 to i8
  store i8 %32, ptr %9, align 1
  %33 = load ptr, ptr %6, align 8
  %34 = load i32, ptr %8, align 4
  %35 = call zeroext i16 @tvb_get_ntohs(ptr noundef %33, i32 noundef %34)
  %36 = zext i16 %35 to i32
  %37 = and i32 %36, 3968
  %38 = ashr i32 %37, 7
  %39 = trunc i32 %38 to i8
  store i8 %39, ptr %10, align 1
  %40 = load ptr, ptr %6, align 8
  %41 = load i32, ptr %8, align 4
  %42 = add i32 %41, 1
  %43 = call zeroext i8 @tvb_get_uint8(ptr noundef %40, i32 noundef %42)
  %44 = zext i8 %43 to i32
  %45 = and i32 %44, 124
  %46 = ashr i32 %45, 2
  %47 = trunc i32 %46 to i8
  store i8 %47, ptr %11, align 1
  %48 = load ptr, ptr %6, align 8
  %49 = load i32, ptr %8, align 4
  %50 = add i32 %49, 1
  %51 = call zeroext i16 @tvb_get_ntohs(ptr noundef %48, i32 noundef %50)
  %52 = zext i16 %51 to i32
  %53 = and i32 %52, 1008
  %54 = ashr i32 %53, 4
  %55 = trunc i32 %54 to i8
  store i8 %55, ptr %12, align 1
  %56 = load ptr, ptr %6, align 8
  %57 = load i32, ptr %8, align 4
  %58 = add i32 %57, 2
  %59 = call zeroext i16 @tvb_get_ntohs(ptr noundef %56, i32 noundef %58)
  %60 = zext i16 %59 to i32
  %61 = and i32 %60, 4032
  %62 = ashr i32 %61, 6
  %63 = trunc i32 %62 to i8
  store i8 %63, ptr %13, align 1
  %64 = call ptr @wmem_packet_scope()
  %65 = load i8, ptr %9, align 1
  %66 = zext i8 %65 to i32
  %67 = load i8, ptr %10, align 1
  %68 = zext i8 %67 to i32
  %69 = load i8, ptr %11, align 1
  %70 = zext i8 %69 to i32
  %71 = load i8, ptr %12, align 1
  %72 = zext i8 %71 to i32
  %73 = load i8, ptr %13, align 1
  %74 = zext i8 %73 to i32
  %75 = call noalias ptr (ptr, ptr, ...) @wmem_strdup_printf(ptr noundef %64, ptr noundef @.str.204, i32 noundef %66, i32 noundef %68, i32 noundef %70, i32 noundef %72, i32 noundef %74)
  store ptr %75, ptr %17, align 8
  %76 = load ptr, ptr %6, align 8
  %77 = load i32, ptr %8, align 4
  %78 = add i32 %77, 3
  %79 = call i32 @tvb_get_ntohl(ptr noundef %76, i32 noundef %78)
  %80 = and i32 %79, 1073741568
  %81 = lshr i32 %80, 16
  store i32 %81, ptr %14, align 4
  %82 = load ptr, ptr %16, align 8
  %83 = load i32, ptr @hf_msg_id_timestamp, align 4
  %84 = load ptr, ptr %6, align 8
  %85 = load i32, ptr %8, align 4
  %86 = load ptr, ptr %17, align 8
  %87 = call ptr @proto_tree_add_string(ptr noundef %82, i32 noundef %83, ptr noundef %84, i32 noundef %85, i32 noundef 4, ptr noundef %86)
  %88 = load ptr, ptr %16, align 8
  %89 = load i32, ptr @hf_msg_id_ismg_code, align 4
  %90 = load ptr, ptr %6, align 8
  %91 = load i32, ptr %8, align 4
  %92 = add i32 %91, 3
  %93 = load i32, ptr %14, align 4
  %94 = call ptr @proto_tree_add_uint(ptr noundef %88, i32 noundef %89, ptr noundef %90, i32 noundef %92, i32 noundef 3, i32 noundef %93)
  %95 = load ptr, ptr %16, align 8
  %96 = load ptr, ptr %6, align 8
  %97 = load i32, ptr @hf_msg_id_sequence_id, align 4
  %98 = load i32, ptr %8, align 4
  %99 = add i32 %98, 6
  %100 = call zeroext i16 @cmpp_uint2(ptr noundef %95, ptr noundef %96, i32 noundef %97, i32 noundef %99)
  call void @llvm.lifetime.end.p0(i64 8, ptr %17) #3
  call void @llvm.lifetime.end.p0(i64 8, ptr %16) #3
  call void @llvm.lifetime.end.p0(i64 8, ptr %15) #3
  call void @llvm.lifetime.end.p0(i64 4, ptr %14) #3
  call void @llvm.lifetime.end.p0(i64 1, ptr %13) #3
  call void @llvm.lifetime.end.p0(i64 1, ptr %12) #3
  call void @llvm.lifetime.end.p0(i64 1, ptr %11) #3
  call void @llvm.lifetime.end.p0(i64 1, ptr %10) #3
  call void @llvm.lifetime.end.p0(i64 1, ptr %9) #3
  ret void
}