; Function Attrs: null_pointer_is_valid sspstrong uwtable
define internal fastcc void @cmpp_msg_id(ptr noundef %0, ptr noundef %1, i32 noundef %2, i32 noundef range(i32 12, 90) %3) unnamed_addr #0 {
  %5 = tail call ptr @proto_tree_add_item(ptr noundef %0, i32 noundef %2, ptr noundef %1, i32 noundef %3, i32 noundef 8, i32 noundef 0)
  %6 = load i32, ptr @ett_msg_id, align 4
  %7 = tail call ptr @proto_item_add_subtree(ptr noundef %5, i32 noundef %6)
  %8 = tail call zeroext i8 @tvb_get_uint8(ptr noundef %1, i32 noundef %3)
  %9 = lshr i8 %8, 4
  %10 = tail call zeroext i16 @tvb_get_ntohs(ptr noundef %1, i32 noundef %3)
  %11 = lshr i16 %10, 7
  %12 = and i16 %11, 31
  %13 = zext nneg i16 %12 to i32
  %14 = add nuw nsw i32 %3, 1
  %15 = tail call zeroext i8 @tvb_get_uint8(ptr noundef %1, i32 noundef %14)
  %16 = lshr i8 %15, 2
  %17 = and i8 %16, 31
  %18 = tail call zeroext i16 @tvb_get_ntohs(ptr noundef %1, i32 noundef %14)
  %19 = lshr i16 %18, 4
  %20 = and i16 %19, 63
  %21 = zext nneg i16 %20 to i32
  %22 = add nuw nsw i32 %3, 2
  %23 = tail call zeroext i16 @tvb_get_ntohs(ptr noundef %1, i32 noundef %22)
  %24 = lshr i16 %23, 6
  %25 = and i16 %24, 63
  %26 = zext nneg i16 %25 to i32
  %27 = tail call ptr @wmem_packet_scope()
  %28 = zext nneg i8 %9 to i32
  %29 = zext nneg i8 %17 to i32
  %30 = tail call noalias ptr (ptr, ptr, ...) @wmem_strdup_printf(ptr noundef %27, ptr noundef nonnull @.str.204, i32 noundef %28, i32 noundef %13, i32 noundef %29, i32 noundef %21, i32 noundef %26)
  %31 = add nuw nsw i32 %3, 3
  %32 = tail call i32 @tvb_get_ntohl(ptr noundef %1, i32 noundef %31)
  %33 = lshr i32 %32, 16
  %34 = and i32 %33, 16383
  %35 = load i32, ptr @hf_msg_id_timestamp, align 4
  %36 = tail call ptr @proto_tree_add_string(ptr noundef %7, i32 noundef %35, ptr noundef %1, i32 noundef %3, i32 noundef 4, ptr noundef %30)
  %37 = load i32, ptr @hf_msg_id_ismg_code, align 4
  %38 = tail call ptr @proto_tree_add_uint(ptr noundef %7, i32 noundef %37, ptr noundef %1, i32 noundef %31, i32 noundef 3, i32 noundef %34)
  %39 = load i32, ptr @hf_msg_id_sequence_id, align 4
  %40 = add nuw nsw i32 %3, 6
  %41 = tail call zeroext i16 @tvb_get_ntohs(ptr noundef %1, i32 noundef range(i32 18, 96) %40)
  %42 = zext i16 %41 to i32
  %43 = tail call ptr @proto_tree_add_uint(ptr noundef %7, i32 noundef %39, ptr noundef %1, i32 noundef range(i32 18, 96) %40, i32 noundef 2, i32 noundef %42)
  ret void
}